; Function Attrs: mustprogress nounwind sspstrong uwtable
define void @_ZN3tbb6detail2r117tbb_exception_ptr7destroyEv(ptr noundef nonnull align 8 dereferenceable(8) %0) local_unnamed_addr #1 align 2 personality ptr @__gxx_personality_v0 {
  %2 = load ptr, ptr %0, align 8, !tbaa !3
  %.not.i.i = icmp eq ptr %2, null
  br i1 %.not.i.i, label %_ZN3tbb6detail2r117tbb_exception_ptrD2Ev.exit, label %3

3:                                                ; preds = %1
  tail call void @_ZNSt15__exception_ptr13exception_ptr10_M_releaseEv(ptr noundef nonnull align 8 dereferenceable(8) %0) #13
  br label %_ZN3tbb6detail2r117tbb_exception_ptrD2Ev.exit

_ZN3tbb6detail2r117tbb_exception_ptrD2Ev.exit:    ; preds = %1, %3
  invoke void @_ZN3tbb6detail2r117deallocate_memoryEPv(ptr noundef nonnull %0)
          to label %4 unwind label %5

4:                                                ; preds = %_ZN3tbb6detail2r117tbb_exception_ptrD2Ev.exit
  ret void

5:                                                ; preds = %_ZN3tbb6detail2r117tbb_exception_ptrD2Ev.exit
  %6 = landingpad { ptr, i32 }
          catch ptr null
  %7 = extractvalue { ptr, i32 } %6, 0
  tail call void @__clang_call_terminate(ptr %7) #16
  unreachable
}